; Function Attrs: mustprogress nounwind uwtable
define dso_local void @_ZN4llvm30DiagnosticInfoOptimizationBase8ArgumentC2ENS_9StringRefEi(ptr noundef nonnull align 8 dereferenceable(80) %0, ptr %1, i64 %2, i32 noundef %3) unnamed_addr #1 align 2 {
  %5 = alloca %"struct.std::__cxx11::basic_string<char>::__sv_wrapper", align 8
  %6 = alloca %"class.std::allocator", align 1
  call void @_ZNSaIcEC1Ev(ptr noundef nonnull align 1 dereferenceable(1) %6) #16
  call void @llvm.lifetime.start.p0(i64 16, ptr nonnull %5)
  %7 = call { i64, ptr } @_ZNSt7__cxx1112basic_stringIcSt11char_traitsIcESaIcEE17_S_to_string_viewESt17basic_string_viewIcS2_E(i64 %2, ptr %1) #16
  %8 = extractvalue { i64, ptr } %7, 0
  %9 = extractvalue { i64, ptr } %7, 1
  call void @_ZNSt7__cxx1112basic_stringIcSt11char_traitsIcESaIcEE12__sv_wrapperC1ESt17basic_string_viewIcS2_E(ptr noundef nonnull align 8 dereferenceable(16) %5, i64 %8, ptr %9) #16
  %10 = load i64, ptr %5, align 8
  %11 = getelementptr inbounds nuw i8, ptr %5, i64 8
  %12 = load ptr, ptr %11, align 8
  call void @_ZNSt7__cxx1112basic_stringIcSt11char_traitsIcESaIcEEC2ENS4_12__sv_wrapperERKS3_(ptr noundef nonnull align 8 dereferenceable(32) %0, i64 %10, ptr %12, ptr noundef nonnull align 1 dereferenceable(1) %6) #16
  call void @llvm.lifetime.end.p0(i64 16, ptr nonnull %5)
  call void @_ZNSaIcED1Ev(ptr noundef nonnull align 1 dereferenceable(1) %6) #16
  %13 = getelementptr inbounds nuw i8, ptr %0, i64 32
  %14 = sext i32 %3 to i64
  call void @_ZN4llvm6itostrB5cxx11El(ptr dead_on_unwind nonnull writable sret(%"class.std::__cxx11::basic_string") align 8 %13, i64 noundef %14)
  %15 = getelementptr inbounds nuw i8, ptr %0, i64 64
  call void @llvm.memset.p0.i64(ptr noundef nonnull align 8 dereferenceable(16) %15, i8 0, i64 16, i1 false)
  ret void
}